
Allocating common symbols
Common symbol       size              file

command             0x1               ..\obj\main.o
precommand          0x1               ..\obj\main.o
timingdelay         0x4               ..\obj\delay.o

Discarded input sections

 .text          0x00000000        0x0 ..\obj\delay.o
 .data          0x00000000        0x0 ..\obj\delay.o
 .bss           0x00000000        0x0 ..\obj\delay.o
 .text          0x00000000        0x0 ..\obj\motion.o
 .data          0x00000000        0x0 ..\obj\motion.o
 .bss           0x00000000        0x0 ..\obj\motion.o
 .text          0x00000000        0x0 ..\obj\startup_stm32f10x_md_vl.o
 .data          0x00000000        0x0 ..\obj\startup_stm32f10x_md_vl.o
 .bss           0x00000000        0x0 ..\obj\startup_stm32f10x_md_vl.o
 .text          0x00000000        0x0 ..\obj\system_stm32f10x.o
 .bss           0x00000000        0x0 ..\obj\system_stm32f10x.o
 .text.SystemCoreClockUpdate
                0x00000000       0xd4 ..\obj\system_stm32f10x.o
 .text          0x00000000        0x0 ..\obj\initialsetting_controller.o
 .data          0x00000000        0x0 ..\obj\initialsetting_controller.o
 .bss           0x00000000        0x0 ..\obj\initialsetting_controller.o
 .text          0x00000000        0x0 ..\obj\initialsetting.o
 .data          0x00000000        0x0 ..\obj\initialsetting.o
 .bss           0x00000000        0x0 ..\obj\initialsetting.o
 .text.GPIO_Configuration_default
                0x00000000       0x48 ..\obj\initialsetting.o
 .debug_info    0x00000000      0x215 ..\obj\initialsetting.o
 .debug_abbrev  0x00000000       0xed ..\obj\initialsetting.o
 .debug_aranges
                0x00000000       0x20 ..\obj\initialsetting.o
 .debug_ranges  0x00000000       0x10 ..\obj\initialsetting.o
 .debug_line    0x00000000      0x250 ..\obj\initialsetting.o
 .debug_str     0x00000000      0x2f7 ..\obj\initialsetting.o
 .comment       0x00000000       0x71 ..\obj\initialsetting.o
 .debug_frame   0x00000000       0x34 ..\obj\initialsetting.o
 .ARM.attributes
                0x00000000       0x33 ..\obj\initialsetting.o
 .text          0x00000000        0x0 ..\obj\stm32f10x_gpio.o
 .data          0x00000000        0x0 ..\obj\stm32f10x_gpio.o
 .bss           0x00000000        0x0 ..\obj\stm32f10x_gpio.o
 .text.GPIO_DeInit
                0x00000000       0xe4 ..\obj\stm32f10x_gpio.o
 .text.GPIO_AFIODeInit
                0x00000000       0x18 ..\obj\stm32f10x_gpio.o
 .text.GPIO_StructInit
                0x00000000       0x28 ..\obj\stm32f10x_gpio.o
 .text.GPIO_ReadInputDataBit
                0x00000000       0x34 ..\obj\stm32f10x_gpio.o
 .text.GPIO_ReadOutputDataBit
                0x00000000       0x34 ..\obj\stm32f10x_gpio.o
 .text.GPIO_ReadOutputData
                0x00000000       0x1c ..\obj\stm32f10x_gpio.o
 .text.GPIO_ResetBits
                0x00000000       0x1c ..\obj\stm32f10x_gpio.o
 .text.GPIO_WriteBit
                0x00000000       0x30 ..\obj\stm32f10x_gpio.o
 .text.GPIO_PinLockConfig
                0x00000000       0x44 ..\obj\stm32f10x_gpio.o
 .text.GPIO_EventOutputConfig
                0x00000000       0x4c ..\obj\stm32f10x_gpio.o
 .text.GPIO_EventOutputCmd
                0x00000000       0x20 ..\obj\stm32f10x_gpio.o
 .text.GPIO_PinRemapConfig
                0x00000000       0xe0 ..\obj\stm32f10x_gpio.o
 .text.GPIO_EXTILineConfig
                0x00000000       0x84 ..\obj\stm32f10x_gpio.o
 .text.GPIO_ETH_MediaInterfaceConfig
                0x00000000       0x1c ..\obj\stm32f10x_gpio.o
 .text          0x00000000        0x0 ..\obj\main.o
 .data          0x00000000        0x0 ..\obj\main.o
 .bss           0x00000000        0x0 ..\obj\main.o
 .text          0x00000000        0x0 ..\obj\stm32f10x_rcc.o
 .bss           0x00000000        0x0 ..\obj\stm32f10x_rcc.o
 .text.RCC_DeInit
                0x00000000       0x64 ..\obj\stm32f10x_rcc.o
 .text.RCC_HSEConfig
                0x00000000       0x5c ..\obj\stm32f10x_rcc.o
 .text.RCC_WaitForHSEStartUp
                0x00000000       0x50 ..\obj\stm32f10x_rcc.o
 .text.RCC_AdjustHSICalibrationValue
                0x00000000       0x3c ..\obj\stm32f10x_rcc.o
 .text.RCC_HSICmd
                0x00000000       0x20 ..\obj\stm32f10x_rcc.o
 .text.RCC_PLLConfig
                0x00000000       0x3c ..\obj\stm32f10x_rcc.o
 .text.RCC_PLLCmd
                0x00000000       0x20 ..\obj\stm32f10x_rcc.o
 .text.RCC_PREDIV1Config
                0x00000000       0x40 ..\obj\stm32f10x_rcc.o
 .text.RCC_SYSCLKConfig
                0x00000000       0x38 ..\obj\stm32f10x_rcc.o
 .text.RCC_GetSYSCLKSource
                0x00000000       0x20 ..\obj\stm32f10x_rcc.o
 .text.RCC_HCLKConfig
                0x00000000       0x38 ..\obj\stm32f10x_rcc.o
 .text.RCC_PCLK1Config
                0x00000000       0x38 ..\obj\stm32f10x_rcc.o
 .text.RCC_PCLK2Config
                0x00000000       0x38 ..\obj\stm32f10x_rcc.o
 .text.RCC_ITConfig
                0x00000000       0x4c ..\obj\stm32f10x_rcc.o
 .text.RCC_USBCLKConfig
                0x00000000       0x1c ..\obj\stm32f10x_rcc.o
 .text.RCC_ADCCLKConfig
                0x00000000       0x38 ..\obj\stm32f10x_rcc.o
 .text.RCC_LSEConfig
                0x00000000       0x40 ..\obj\stm32f10x_rcc.o
 .text.RCC_LSICmd
                0x00000000       0x20 ..\obj\stm32f10x_rcc.o
 .text.RCC_RTCCLKConfig
                0x00000000       0x24 ..\obj\stm32f10x_rcc.o
 .text.RCC_RTCCLKCmd
                0x00000000       0x20 ..\obj\stm32f10x_rcc.o
 .text.RCC_AHBPeriphClockCmd
                0x00000000       0x3c ..\obj\stm32f10x_rcc.o
 .text.RCC_APB1PeriphClockCmd
                0x00000000       0x3c ..\obj\stm32f10x_rcc.o
 .text.RCC_APB2PeriphResetCmd
                0x00000000       0x3c ..\obj\stm32f10x_rcc.o
 .text.RCC_APB1PeriphResetCmd
                0x00000000       0x3c ..\obj\stm32f10x_rcc.o
 .text.RCC_BackupResetCmd
                0x00000000       0x20 ..\obj\stm32f10x_rcc.o
 .text.RCC_ClockSecuritySystemCmd
                0x00000000       0x20 ..\obj\stm32f10x_rcc.o
 .text.RCC_MCOConfig
                0x00000000       0x20 ..\obj\stm32f10x_rcc.o
 .text.RCC_GetFlagStatus
                0x00000000       0x74 ..\obj\stm32f10x_rcc.o
 .text.RCC_ClearFlag
                0x00000000       0x1c ..\obj\stm32f10x_rcc.o
 .text.RCC_GetITStatus
                0x00000000       0x38 ..\obj\stm32f10x_rcc.o
 .text.RCC_ClearITPendingBit
                0x00000000       0x20 ..\obj\stm32f10x_rcc.o
 .text          0x00000000        0x0 ..\obj\stm32f10x_usart.o
 .data          0x00000000        0x0 ..\obj\stm32f10x_usart.o
 .bss           0x00000000        0x0 ..\obj\stm32f10x_usart.o
 .text.USART_DeInit
                0x00000000       0xb8 ..\obj\stm32f10x_usart.o
 .text.USART_StructInit
                0x00000000       0x38 ..\obj\stm32f10x_usart.o
 .text.USART_ClockInit
                0x00000000       0x58 ..\obj\stm32f10x_usart.o
 .text.USART_ClockStructInit
                0x00000000       0x2c ..\obj\stm32f10x_usart.o
 .text.USART_ITConfig
                0x00000000       0x90 ..\obj\stm32f10x_usart.o
 .text.USART_DMACmd
                0x00000000       0x48 ..\obj\stm32f10x_usart.o
 .text.USART_SetAddress
                0x00000000       0x38 ..\obj\stm32f10x_usart.o
 .text.USART_WakeUpConfig
                0x00000000       0x38 ..\obj\stm32f10x_usart.o
 .text.USART_ReceiverWakeUpCmd
                0x00000000       0x40 ..\obj\stm32f10x_usart.o
 .text.USART_LINBreakDetectLengthConfig
                0x00000000       0x38 ..\obj\stm32f10x_usart.o
 .text.USART_LINCmd
                0x00000000       0x40 ..\obj\stm32f10x_usart.o
 .text.USART_ReceiveData
                0x00000000       0x20 ..\obj\stm32f10x_usart.o
 .text.USART_SendBreak
                0x00000000       0x24 ..\obj\stm32f10x_usart.o
 .text.USART_SetGuardTime
                0x00000000       0x3c ..\obj\stm32f10x_usart.o
 .text.USART_SetPrescaler
                0x00000000       0x38 ..\obj\stm32f10x_usart.o
 .text.USART_SmartCardCmd
                0x00000000       0x40 ..\obj\stm32f10x_usart.o
 .text.USART_SmartCardNACKCmd
                0x00000000       0x40 ..\obj\stm32f10x_usart.o
 .text.USART_HalfDuplexCmd
                0x00000000       0x40 ..\obj\stm32f10x_usart.o
 .text.USART_OverSampling8Cmd
                0x00000000       0x44 ..\obj\stm32f10x_usart.o
 .text.USART_OneBitMethodCmd
                0x00000000       0x40 ..\obj\stm32f10x_usart.o
 .text.USART_IrDAConfig
                0x00000000       0x38 ..\obj\stm32f10x_usart.o
 .text.USART_IrDACmd
                0x00000000       0x40 ..\obj\stm32f10x_usart.o
 .text.USART_GetFlagStatus
                0x00000000       0x38 ..\obj\stm32f10x_usart.o
 .text.USART_ClearFlag
                0x00000000       0x20 ..\obj\stm32f10x_usart.o
 .text.USART_GetITStatus
                0x00000000       0xb8 ..\obj\stm32f10x_usart.o
 .text.USART_ClearITPendingBit
                0x00000000       0x38 ..\obj\stm32f10x_usart.o
 .text          0x00000000        0x0 ..\obj\tim1.o
 .data          0x00000000        0x0 ..\obj\tim1.o
 .bss           0x00000000        0x0 ..\obj\tim1.o
 .text          0x00000000        0x0 ..\obj\servo.o
 .data          0x00000000        0x0 ..\obj\servo.o
 .bss           0x00000000        0x0 ..\obj\servo.o
 .text.Conversepacket
                0x00000000       0xe0 ..\obj\servo.o
 .text.Conversepacket_torque
                0x00000000       0xc0 ..\obj\servo.o
 .text.Servosample
                0x00000000      0x1c4 ..\obj\servo.o
 .text          0x00000000        0x0 ..\obj\syscalls.o
 .data          0x00000000        0x0 ..\obj\syscalls.o
 .bss           0x00000000        0x4 ..\obj\syscalls.o
 .text._sbrk    0x00000000       0x40 ..\obj\syscalls.o
 .text.link     0x00000000       0x1c ..\obj\syscalls.o
 .text._close   0x00000000       0x18 ..\obj\syscalls.o
 .text._fstat   0x00000000       0x20 ..\obj\syscalls.o
 .text._isatty  0x00000000       0x18 ..\obj\syscalls.o
 .text._lseek   0x00000000       0x1c ..\obj\syscalls.o
 .text._read    0x00000000       0x1c ..\obj\syscalls.o
 .text._write   0x00000000       0x1c ..\obj\syscalls.o
 .text.abort    0x00000000        0x8 ..\obj\syscalls.o
 .debug_info    0x00000000      0x3ee ..\obj\syscalls.o
 .debug_abbrev  0x00000000       0xe2 ..\obj\syscalls.o
 .debug_aranges
                0x00000000       0x60 ..\obj\syscalls.o
 .debug_ranges  0x00000000       0x50 ..\obj\syscalls.o
 .debug_line    0x00000000      0x18c ..\obj\syscalls.o
 .debug_str     0x00000000      0x2fb ..\obj\syscalls.o
 .comment       0x00000000       0x71 ..\obj\syscalls.o
 .debug_frame   0x00000000      0x168 ..\obj\syscalls.o
 .ARM.attributes
                0x00000000       0x33 ..\obj\syscalls.o
 .text          0x00000000        0x0 ..\obj\misc.o
 .data          0x00000000        0x0 ..\obj\misc.o
 .bss           0x00000000        0x0 ..\obj\misc.o
 .text.NVIC_PriorityGroupConfig
                0x00000000       0x24 ..\obj\misc.o
 .text.NVIC_Init
                0x00000000       0xc4 ..\obj\misc.o
 .text.NVIC_SetVectorTable
                0x00000000       0x2c ..\obj\misc.o
 .text.NVIC_SystemLPConfig
                0x00000000       0x40 ..\obj\misc.o
 .text.SysTick_CLKSourceConfig
                0x00000000       0x38 ..\obj\misc.o
 .debug_info    0x00000000      0x53d ..\obj\misc.o
 .debug_abbrev  0x00000000      0x145 ..\obj\misc.o
 .debug_aranges
                0x00000000       0x40 ..\obj\misc.o
 .debug_ranges  0x00000000       0x30 ..\obj\misc.o
 .debug_line    0x00000000      0x29e ..\obj\misc.o
 .debug_str     0x00000000      0x3dd ..\obj\misc.o
 .comment       0x00000000       0x71 ..\obj\misc.o
 .debug_frame   0x00000000       0xd8 ..\obj\misc.o
 .ARM.attributes
                0x00000000       0x33 ..\obj\misc.o

Memory Configuration

Name             Origin             Length             Attributes
rom              0x08000000         0x00020000         xr
ram              0x20000000         0x00002000         xrw
*default*        0x00000000         0xffffffff

Linker script and memory map

                0x20002000                _eram = 0x20002000

.text           0x08000000      0xb40
 *(.isr_vector)
 .isr_vector    0x08000000      0x124 ..\obj\startup_stm32f10x_md_vl.o
                0x08000000                g_pfnVectors
 *(.text*)
 .text.NVIC_SetPriority
                0x08000124       0x54 ..\obj\delay.o
 .text.SysTick_Config
                0x08000178       0x44 ..\obj\delay.o
 .text.delay_Configuration
                0x080001bc       0x28 ..\obj\delay.o
                0x080001bc                delay_Configuration
 .text.SysTick_Handler
                0x080001e4       0x24 ..\obj\delay.o
                0x080001e4                SysTick_Handler
 .text.tdelay   0x08000208       0x28 ..\obj\delay.o
                0x08000208                tdelay
 .text.switch_pattern
                0x08000230       0x10 ..\obj\motion.o
                0x08000230                switch_pattern
 .text.motion_select
                0x08000240       0x90 ..\obj\motion.o
                0x08000240                motion_select
 .text.Default_Reset_Handler
                0x080002d0       0x5c ..\obj\startup_stm32f10x_md_vl.o
                0x080002d0                Default_Reset_Handler
                0x080002d0                Reset_Handler
 .text.Default_Handler
                0x0800032c        0x8 ..\obj\startup_stm32f10x_md_vl.o
                0x0800032c                EXTI2_IRQHandler
                0x0800032c                DebugMon_Handler
                0x0800032c                HardFault_Handler
                0x0800032c                PVD_IRQHandler
                0x0800032c                PendSV_Handler
                0x0800032c                NMI_Handler
                0x0800032c                EXTI3_IRQHandler
                0x0800032c                EXTI0_IRQHandler
                0x0800032c                I2C2_EV_IRQHandler
                0x0800032c                TIM1_UP_TIM16_IRQHandler
                0x0800032c                UsageFault_Handler
                0x0800032c                SPI1_IRQHandler
                0x0800032c                TAMPER_IRQHandler
                0x0800032c                TIM6_DAC_IRQHandler
                0x0800032c                DMA1_Channel4_IRQHandler
                0x0800032c                ADC1_IRQHandler
                0x0800032c                USART3_IRQHandler
                0x0800032c                RTC_IRQHandler
                0x0800032c                DMA1_Channel7_IRQHandler
                0x0800032c                TIM4_IRQHandler
                0x0800032c                I2C1_EV_IRQHandler
                0x0800032c                DMA1_Channel6_IRQHandler
                0x0800032c                TIM3_IRQHandler
                0x0800032c                RCC_IRQHandler
                0x0800032c                DMA1_Channel1_IRQHandler
                0x0800032c                CEC_IRQHandler
                0x0800032c                EXTI15_10_IRQHandler
                0x0800032c                TIM7_IRQHandler
                0x0800032c                EXTI9_5_IRQHandler
                0x0800032c                SPI2_IRQHandler
                0x0800032c                MemManage_Handler
                0x0800032c                SVC_Handler
                0x0800032c                DMA1_Channel5_IRQHandler
                0x0800032c                EXTI4_IRQHandler
                0x0800032c                TIM1_TRG_COM_TIM17_IRQHandler
                0x0800032c                DMA1_Channel3_IRQHandler
                0x0800032c                WWDG_IRQHandler
                0x0800032c                TIM2_IRQHandler
                0x0800032c                EXTI1_IRQHandler
                0x0800032c                RTCAlarm_IRQHandler
                0x0800032c                USART2_IRQHandler
                0x0800032c                I2C2_ER_IRQHandler
                0x0800032c                DMA1_Channel2_IRQHandler
                0x0800032c                FLASH_IRQHandler
                0x0800032c                BusFault_Handler
                0x0800032c                USART1_IRQHandler
                0x0800032c                I2C1_ER_IRQHandler
                0x0800032c                TIM1_BRK_TIM15_IRQHandler
 .text.SystemInit
                0x08000334       0x6c ..\obj\system_stm32f10x.o
                0x08000334                SystemInit
 .text.SetSysClock
                0x080003a0        0xc ..\obj\system_stm32f10x.o
 .text.SetSysClockTo24
                0x080003ac       0xd4 ..\obj\system_stm32f10x.o
 .text.GPIO_Configuration
                0x08000480       0x5c ..\obj\initialsetting_controller.o
                0x08000480                GPIO_Configuration
 .text.GPIO_Init
                0x080004dc      0x180 ..\obj\stm32f10x_gpio.o
                0x080004dc                GPIO_Init
 .text.GPIO_ReadInputData
                0x0800065c       0x1c ..\obj\stm32f10x_gpio.o
                0x0800065c                GPIO_ReadInputData
 .text.GPIO_SetBits
                0x08000678       0x1c ..\obj\stm32f10x_gpio.o
                0x08000678                GPIO_SetBits
 .text.GPIO_Write
                0x08000694       0x1c ..\obj\stm32f10x_gpio.o
                0x08000694                GPIO_Write
 .text.main     0x080006b0       0x84 ..\obj\main.o
                0x080006b0                main
 .text.RCC_GetClocksFreq
                0x08000734      0x15c ..\obj\stm32f10x_rcc.o
                0x08000734                RCC_GetClocksFreq
 .text.RCC_APB2PeriphClockCmd
                0x08000890       0x3c ..\obj\stm32f10x_rcc.o
                0x08000890                RCC_APB2PeriphClockCmd
 .text.USART_Init
                0x080008cc      0x174 ..\obj\stm32f10x_usart.o
                0x080008cc                USART_Init
 .text.USART_Cmd
                0x08000a40       0x40 ..\obj\stm32f10x_usart.o
                0x08000a40                USART_Cmd
 .text.USART_SendData
                0x08000a80       0x24 ..\obj\stm32f10x_usart.o
                0x08000a80                USART_SendData
 .text.TIM1_CC_IRQHandler
                0x08000aa4       0x20 ..\obj\tim1.o
                0x08000aa4                TIM1_CC_IRQHandler
 .text.USART1_Configuration
                0x08000ac4       0x7c ..\obj\servo.o
                0x08000ac4                USART1_Configuration
 *(.init)
 *(.fini)
 *crtbegin.o(.ctors)
 *crtbegin?.o(.ctors)
 *(EXCLUDE_FILE(*crtend.o *crtend?.o) .ctors)
 *(SORT(.ctors.*))
 *(.ctors)
 *crtbegin.o(.dtors)
 *crtbegin?.o(.dtors)
 *(EXCLUDE_FILE(*crtend.o *crtend?.o) .dtors)
 *(SORT(.dtors.*))
 *(.dtors)
 *(.rodata*)
 *(.eh_fram e*)

.glue_7         0x08000b40        0x0
 .glue_7        0x00000000        0x0 linker stubs

.glue_7t        0x08000b40        0x0
 .glue_7t       0x00000000        0x0 linker stubs

.vfp11_veneer   0x08000b40        0x0
 .vfp11_veneer  0x00000000        0x0 linker stubs

.v4_bx          0x08000b40        0x0
 .v4_bx         0x00000000        0x0 linker stubs

.iplt           0x08000b40        0x0
 .iplt          0x00000000        0x0 ..\obj\delay.o

.rel.dyn        0x08000b40        0x0
 .rel.iplt      0x00000000        0x0 ..\obj\delay.o

.ARM.extab
 *(.ARM.extab* .gnu.linkonce.armextab.*)
                0x08000b40                __exidx_start = .

.ARM.exidx
 *(.ARM.exidx* .gnu.linkonce.armexidx.*)
                0x08000b40                __exidx_end = .
                0x08000b40                __etext = .
                0x08000b40                _sidata = __etext

.data           0x20000000       0x28 load address 0x08000b40
                0x20000000                __data_start__ = .
                0x20000000                _sdata = __data_start__
 *(vtable)
 *(.data*)
 .data          0x20000000       0x14 ..\obj\system_stm32f10x.o
                0x20000000                SystemCoreClock
                0x20000004                AHBPrescTable
 .data          0x20000014       0x14 ..\obj\stm32f10x_rcc.o
                0x20000028                . = ALIGN (0x4)
                0x20000028                PROVIDE (__preinit_array_start, .)
 *(.preinit_array)
                0x20000028                PROVIDE (__preinit_array_end, .)
                0x20000028                . = ALIGN (0x4)
                0x20000028                PROVIDE (__init_array_start, .)
 *(SORT(.init_array.*))
 *(.init_array)
                0x20000028                PROVIDE (__init_array_end, .)
                0x20000028                . = ALIGN (0x4)
                0x20000028                PROVIDE (__fini_array_start, .)
 *(SORT(.fini_array.*))
 *(.fini_array)
                0x20000028                PROVIDE (__fini_array_end, .)
 *(.jcr*)
                0x20000028                . = ALIGN (0x4)
                0x20000028                __data_end__ = .
                0x20000028                _edata = __data_end__

.igot.plt       0x20000028        0x0 load address 0x08000b68
 .igot.plt      0x00000000        0x0 ..\obj\delay.o

.bss            0x20000028        0x8 load address 0x08000b68
                0x20000028                . = ALIGN (0x4)
                0x20000028                __bss_start__ = .
                0x20000028                _sbss = __bss_start__
 *(.bss*)
 *(COMMON)
 COMMON         0x20000028        0x4 ..\obj\delay.o
                0x20000028                timingdelay
 COMMON         0x2000002c        0x2 ..\obj\main.o
                0x2000002c                command
                0x2000002d                precommand
                0x20000030                . = ALIGN (0x4)
 *fill*         0x2000002e        0x2 
                0x20000030                __bss_end__ = .
                0x20000030                _ebss = __bss_end__

.heap           0x20000030        0x0
                0x20000030                __end__ = .
                0x20000030                _end = __end__
                0x20000030                end = __end__
 *(.heap*)
                0x20000030                __HeapLimit = .

.co_stack       0x20000030      0x400 load address 0x08000b70
                0x20000030                . = ALIGN (0x8)
 *(.co_stack .co_stack.*)
 .co_stack      0x20000030      0x400 ..\obj\startup_stm32f10x_md_vl.o
                0x20000030                pulStack
                0x20002000                __StackTop = (ORIGIN (ram) + 0x2000)
                0x20001c00                __StackLimit = (__StackTop - SIZEOF (.co_stack))
                0x20002000                PROVIDE (__stack, __StackTop)
                0x00000001                ASSERT ((__StackLimit >= __HeapLimit), region ram  overflowed with stack)
LOAD ..\obj\delay.o
LOAD ..\obj\motion.o
LOAD ..\obj\startup_stm32f10x_md_vl.o
LOAD ..\obj\system_stm32f10x.o
LOAD ..\obj\initialsetting_controller.o
LOAD ..\obj\initialsetting.o
LOAD ..\obj\stm32f10x_gpio.o
LOAD ..\obj\main.o
LOAD ..\obj\stm32f10x_rcc.o
LOAD ..\obj\stm32f10x_usart.o
LOAD ..\obj\tim1.o
LOAD ..\obj\servo.o
LOAD ..\obj\syscalls.o
LOAD ..\obj\misc.o
START GROUP
LOAD c:/program files (x86)/gnu tools arm embedded/4.9 2015q2/bin/../lib/gcc/arm-none-eabi/4.9.3/armv7-m\libgcc.a
LOAD c:/program files (x86)/gnu tools arm embedded/4.9 2015q2/bin/../lib/gcc/arm-none-eabi/4.9.3/../../../../arm-none-eabi/lib/armv7-m\libg.a
LOAD c:/program files (x86)/gnu tools arm embedded/4.9 2015q2/bin/../lib/gcc/arm-none-eabi/4.9.3/../../../../arm-none-eabi/lib/armv7-m\libc.a
END GROUP
OUTPUT(test0909.elf elf32-littlearm)

.debug_info     0x00000000     0x31c1
 .debug_info    0x00000000      0x5d7 ..\obj\delay.o
 .debug_info    0x000005d7      0x1de ..\obj\motion.o
 .debug_info    0x000007b5       0xe9 ..\obj\startup_stm32f10x_md_vl.o
 .debug_info    0x0000089e      0x41a ..\obj\system_stm32f10x.o
 .debug_info    0x00000cb8      0x215 ..\obj\initialsetting_controller.o
 .debug_info    0x00000ecd      0x6e7 ..\obj\stm32f10x_gpio.o
 .debug_info    0x000015b4      0x279 ..\obj\main.o
 .debug_info    0x0000182d      0x8fa ..\obj\stm32f10x_rcc.o
 .debug_info    0x00002127      0x9e8 ..\obj\stm32f10x_usart.o
 .debug_info    0x00002b0f      0x1c3 ..\obj\tim1.o
 .debug_info    0x00002cd2      0x4ef ..\obj\servo.o

.debug_abbrev   0x00000000      0xd63
 .debug_abbrev  0x00000000      0x1a6 ..\obj\delay.o
 .debug_abbrev  0x000001a6      0x119 ..\obj\motion.o
 .debug_abbrev  0x000002bf       0xa7 ..\obj\startup_stm32f10x_md_vl.o
 .debug_abbrev  0x00000366      0x14c ..\obj\system_stm32f10x.o
 .debug_abbrev  0x000004b2       0xed ..\obj\initialsetting_controller.o
 .debug_abbrev  0x0000059f      0x1c8 ..\obj\stm32f10x_gpio.o
 .debug_abbrev  0x00000767       0xde ..\obj\main.o
 .debug_abbrev  0x00000845      0x1ba ..\obj\stm32f10x_rcc.o
 .debug_abbrev  0x000009ff      0x162 ..\obj\stm32f10x_usart.o
 .debug_abbrev  0x00000b61       0xae ..\obj\tim1.o
 .debug_abbrev  0x00000c0f      0x154 ..\obj\servo.o

.debug_aranges  0x00000000      0x428
 .debug_aranges
                0x00000000       0x40 ..\obj\delay.o
 .debug_aranges
                0x00000040       0x28 ..\obj\motion.o
 .debug_aranges
                0x00000068       0x28 ..\obj\startup_stm32f10x_md_vl.o
 .debug_aranges
                0x00000090       0x38 ..\obj\system_stm32f10x.o
 .debug_aranges
                0x000000c8       0x20 ..\obj\initialsetting_controller.o
 .debug_aranges
                0x000000e8       0xa8 ..\obj\stm32f10x_gpio.o
 .debug_aranges
                0x00000190       0x20 ..\obj\main.o
 .debug_aranges
                0x000001b0      0x120 ..\obj\stm32f10x_rcc.o
 .debug_aranges
                0x000002d0      0x100 ..\obj\stm32f10x_usart.o
 .debug_aranges
                0x000003d0       0x20 ..\obj\tim1.o
 .debug_aranges
                0x000003f0       0x38 ..\obj\servo.o

.debug_ranges   0x00000000      0x378
 .debug_ranges  0x00000000       0x30 ..\obj\delay.o
 .debug_ranges  0x00000030       0x18 ..\obj\motion.o
 .debug_ranges  0x00000048       0x18 ..\obj\startup_stm32f10x_md_vl.o
 .debug_ranges  0x00000060       0x28 ..\obj\system_stm32f10x.o
 .debug_ranges  0x00000088       0x10 ..\obj\initialsetting_controller.o
 .debug_ranges  0x00000098       0x98 ..\obj\stm32f10x_gpio.o
 .debug_ranges  0x00000130       0x10 ..\obj\main.o
 .debug_ranges  0x00000140      0x110 ..\obj\stm32f10x_rcc.o
 .debug_ranges  0x00000250       0xf0 ..\obj\stm32f10x_usart.o
 .debug_ranges  0x00000340       0x10 ..\obj\tim1.o
 .debug_ranges  0x00000350       0x28 ..\obj\servo.o

.debug_line     0x00000000     0x1f75
 .debug_line    0x00000000      0x262 ..\obj\delay.o
 .debug_line    0x00000262      0x218 ..\obj\motion.o
 .debug_line    0x0000047a       0xbc ..\obj\startup_stm32f10x_md_vl.o
 .debug_line    0x00000536      0x24b ..\obj\system_stm32f10x.o
 .debug_line    0x00000781      0x25e ..\obj\initialsetting_controller.o
 .debug_line    0x000009df      0x410 ..\obj\stm32f10x_gpio.o
 .debug_line    0x00000def      0x20a ..\obj\main.o
 .debug_line    0x00000ff9      0x535 ..\obj\stm32f10x_rcc.o
 .debug_line    0x0000152e      0x4f3 ..\obj\stm32f10x_usart.o
 .debug_line    0x00001a21      0x1e4 ..\obj\tim1.o
 .debug_line    0x00001c05      0x370 ..\obj\servo.o

.debug_str      0x00000000     0x1604
 .debug_str     0x00000000      0x541 ..\obj\delay.o
                                0x593 (size before relaxing)
 .debug_str     0x00000541       0xad ..\obj\motion.o
                                0x213 (size before relaxing)
 .debug_str     0x000005ee       0xca ..\obj\startup_stm32f10x_md_vl.o
                                0x161 (size before relaxing)
 .debug_str     0x000006b8      0x115 ..\obj\system_stm32f10x.o
                                0x2f9 (size before relaxing)
 .debug_str     0x000007cd      0x193 ..\obj\initialsetting_controller.o
                                0x2fa (size before relaxing)
 .debug_str     0x00000960      0x2a0 ..\obj\stm32f10x_gpio.o
                                0x538 (size before relaxing)
 .debug_str     0x00000c00       0x6f ..\obj\main.o
                                0x234 (size before relaxing)
 .debug_str     0x00000c6f      0x434 ..\obj\stm32f10x_rcc.o
                                0x68c (size before relaxing)
 .debug_str     0x000010a3      0x433 ..\obj\stm32f10x_usart.o
                                0x6af (size before relaxing)
 .debug_str     0x000014d6       0x56 ..\obj\tim1.o
                                0x21c (size before relaxing)
 .debug_str     0x0000152c       0xd8 ..\obj\servo.o
                                0x461 (size before relaxing)

.comment        0x00000000       0x70
 .comment       0x00000000       0x70 ..\obj\delay.o
                                 0x71 (size before relaxing)
 .comment       0x00000000       0x71 ..\obj\motion.o
 .comment       0x00000000       0x71 ..\obj\startup_stm32f10x_md_vl.o
 .comment       0x00000000       0x71 ..\obj\system_stm32f10x.o
 .comment       0x00000000       0x71 ..\obj\initialsetting_controller.o
 .comment       0x00000000       0x71 ..\obj\stm32f10x_gpio.o
 .comment       0x00000000       0x71 ..\obj\main.o
 .comment       0x00000000       0x71 ..\obj\stm32f10x_rcc.o
 .comment       0x00000000       0x71 ..\obj\stm32f10x_usart.o
 .comment       0x00000000       0x71 ..\obj\tim1.o
 .comment       0x00000000       0x71 ..\obj\servo.o

.ARM.attributes
                0x00000000       0x33
 .ARM.attributes
                0x00000000       0x33 ..\obj\delay.o
 .ARM.attributes
                0x00000033       0x33 ..\obj\motion.o
 .ARM.attributes
                0x00000066       0x33 ..\obj\startup_stm32f10x_md_vl.o
 .ARM.attributes
                0x00000099       0x33 ..\obj\system_stm32f10x.o
 .ARM.attributes
                0x000000cc       0x33 ..\obj\initialsetting_controller.o
 .ARM.attributes
                0x000000ff       0x33 ..\obj\stm32f10x_gpio.o
 .ARM.attributes
                0x00000132       0x33 ..\obj\main.o
 .ARM.attributes
                0x00000165       0x33 ..\obj\stm32f10x_rcc.o
 .ARM.attributes
                0x00000198       0x33 ..\obj\stm32f10x_usart.o
 .ARM.attributes
                0x000001cb       0x33 ..\obj\tim1.o
 .ARM.attributes
                0x000001fe       0x33 ..\obj\servo.o

.debug_frame    0x00000000      0xfa8
 .debug_frame   0x00000000       0xc0 ..\obj\delay.o
 .debug_frame   0x000000c0       0x58 ..\obj\motion.o
 .debug_frame   0x00000118       0x4c ..\obj\startup_stm32f10x_md_vl.o
 .debug_frame   0x00000164       0x98 ..\obj\system_stm32f10x.o
 .debug_frame   0x000001fc       0x34 ..\obj\initialsetting_controller.o
 .debug_frame   0x00000230      0x2d0 ..\obj\stm32f10x_gpio.o
 .debug_frame   0x00000500       0x2c ..\obj\main.o
 .debug_frame   0x0000052c      0x51c ..\obj\stm32f10x_rcc.o
 .debug_frame   0x00000a48      0x490 ..\obj\stm32f10x_usart.o
 .debug_frame   0x00000ed8       0x2c ..\obj\tim1.o
 .debug_frame   0x00000f04       0xa4 ..\obj\servo.o
